; Function Attrs: nounwind sspstrong uwtable
define internal i64 @mString_Extend_json_create(i64 %0, i64 noundef %1) #0 {
  %3 = icmp eq i64 %1, 0
  %4 = and i64 %1, 7
  %5 = icmp ne i64 %4, 0
  %6 = or i1 %3, %5
  br i1 %6, label %rbimpl_RB_TYPE_P_fastpath.exit.thread.i, label %7, !prof !57

7:                                                ; preds = %2
  %8 = inttoptr i64 %1 to ptr
  %9 = load i64, ptr %8, align 8, !tbaa !23
  %10 = and i64 %9, 31
  %11 = icmp eq i64 %10, 8
  br i1 %11, label %Check_Type.exit, label %rbimpl_RB_TYPE_P_fastpath.exit.thread.i, !prof !24

rbimpl_RB_TYPE_P_fastpath.exit.thread.i:          ; preds = %7, %2
  tail call void @rb_unexpected_type(i64 noundef %1, i32 noundef 8) #25
  unreachable

Check_Type.exit:                                  ; preds = %7
  %12 = tail call i64 @rb_str_new_static(ptr noundef nonnull @.str.107, i64 noundef 3) #22
  %13 = tail call i64 @rb_hash_aref(i64 noundef %1, i64 noundef %12) #22
  %14 = load i64, ptr @i_pack, align 8, !tbaa !6
  %15 = tail call i64 @rb_str_new_static(ptr noundef nonnull @.str.106, i64 noundef 2) #22
  %16 = tail call i64 (i64, i64, i32, ...) @rb_funcall(i64 noundef %13, i64 noundef %14, i32 noundef 1, i64 noundef %15) #22
  ret i64 %16
}